#include <math.h>
#include <stdio.h>
#include <stdlib.h>
#include <string.h>
#include <iostream>
using namespace std;

/*
 * huiwenzilie.cpp
 *
 *  Created on: 2010-12-19
 *      Author: lz
 */

int main()
{
	char c[600];
	cin>>c;
	int p;
	int q;
	int i;
	int j;
	int zilen;
	int len=strlen(c);
	for(zilen=2;zilen<=len;zilen++)//???????
		for(i=0;i<=len-zilen;i++)//???????????
		{
			p=i;//????????
			q=i+zilen-1;//????????
			while(p<q)//???????
			{
				if(c[p]==c[q])
				{
					p++;
					q--;
				}
				else
					break;
			}
			if(p>=q)
			{
				for(j=i;j<i+zilen;j++)
					cout<<c[j];
				cout<<endl;
			}
		}
	return 0;
}
